ccopy_reg
_reconstructor
p0
(csklearn.linear_model.base
LinearRegression
p1
c__builtin__
object
p2
Ntp3
Rp4
(dp5
S'normalize'
p6
I00
sS'n_jobs'
p7
NsS'rank_'
p8
I5
sS'fit_intercept'
p9
I01
sS'_residues'
p10
cnumpy.core.multiarray
scalar
p11
(cnumpy
dtype
p12
(S'f8'
p13
I0
I1
tp14
Rp15
(I3
S'<'
p16
NNNI-1
I-1
I0
tp17
bS'D\x91e\x0e\xe4\x90\x95@'
p18
tp19
Rp20
sS'coef_'
p21
cnumpy.core.multiarray
_reconstruct
p22
(cnumpy
ndarray
p23
(I0
tp24
S'b'
p25
tp26
Rp27
(I1
(I5
tp28
g15
I00
S'Q\x83}\x8e8H\xc3?i\xba7\xad\x8b\xab\xef?\xac\x03.\x05l\xb0\xc5\xbf\xb6\x81\xa5\x1c\xea\x82\xce\xbfF\x14\x8c\x0f@\xae\xa3?'
p29
tp30
bsS'_sklearn_version'
p31
S'0.20.4'
p32
sS'copy_X'
p33
I01
sS'intercept_'
p34
g11
(g15
S"`'\xb2+\nu\xfa\xbf"
p35
tp36
Rp37
sS'singular_'
p38
g22
(g23
(I0
tp39
g25
tp40
Rp41
(I1
(I5
tp42
g15
I00
S'UU\x0f@\xe9\x83c@\xefi\xa0\xf9\x9bwV@\xde\xea\xe3\xea\xde\xfa7@\xc4\xb5uu\xe4\xdd/@P\xe0\xd38L\xda)@'
p43
tp44
bsb.